target datalayout = "e-m:e-p270:32:32-p271:32:32-p272:64:64-i64:64-i128:128-f80:128-n8:16:32:64-S128"
target triple = "x86_64-unknown-linux-gnu"

%"class.std::set.0" = type { %"class.std::_Rb_tree.1" }
%"class.std::_Rb_tree.1" = type { %"struct.std::_Rb_tree<QuantLib::Observer *, QuantLib::Observer *, std::_Identity<QuantLib::Observer *>, std::less<QuantLib::Observer *>>::_Rb_tree_impl" }
%"struct.std::_Rb_tree<QuantLib::Observer *, QuantLib::Observer *, std::_Identity<QuantLib::Observer *>, std::less<QuantLib::Observer *>>::_Rb_tree_impl" = type { [8 x i8], %"struct.std::_Rb_tree_header" }
%"struct.std::_Rb_tree_header" = type { %"struct.std::_Rb_tree_node_base", i64 }
%"struct.std::_Rb_tree_node_base" = type { i32, ptr, ptr, ptr }
%"class.std::set" = type { %"class.std::_Rb_tree" }
%"class.std::_Rb_tree" = type { %"struct.std::_Rb_tree<boost::shared_ptr<QuantLib::Observable>, boost::shared_ptr<QuantLib::Observable>, std::_Identity<boost::shared_ptr<QuantLib::Observable>>, std::less<boost::shared_ptr<QuantLib::Observable>>>::_Rb_tree_impl" }
%"struct.std::_Rb_tree<boost::shared_ptr<QuantLib::Observable>, boost::shared_ptr<QuantLib::Observable>, std::_Identity<boost::shared_ptr<QuantLib::Observable>>, std::less<boost::shared_ptr<QuantLib::Observable>>>::_Rb_tree_impl" = type { [8 x i8], %"struct.std::_Rb_tree_header" }
%"class.boost::detail::shared_count" = type { ptr }
%"class.QuantLib::Observable" = type { ptr, %"class.std::set.0" }
%"class.QuantLib::OrnsteinUhlenbeckProcess" = type { %"class.QuantLib::StochasticProcess1D", double, double, double, double }
%"class.QuantLib::StochasticProcess1D" = type { %"class.QuantLib::StochasticProcess", %"class.boost::shared_ptr.7" }
%"class.QuantLib::StochasticProcess" = type { %"class.QuantLib::Observer", %"class.QuantLib::Observable", %"class.boost::shared_ptr.6" }
%"class.QuantLib::Observer" = type { ptr, %"class.std::set" }
%"class.boost::shared_ptr.6" = type { ptr, %"class.boost::detail::shared_count" }
%"class.boost::shared_ptr.7" = type { ptr, %"class.boost::detail::shared_count" }

; Function Attrs: mustprogress nounwind uwtable
define linkonce_odr noundef double @_ZNSt14numeric_limitsIdE7epsilonEv() #1 comdat align 2 {
entry:
  ret double 0x3CB0000000000000
}

; Function Attrs: mustprogress nounwind uwtable
define noundef double @_ZNK8QuantLib24OrnsteinUhlenbeckProcess8varianceEddd(ptr noundef nonnull align 8 dereferenceable(176) %this, double noundef %0, double noundef %1, double noundef %dt) unnamed_addr #1 align 2 {
entry:
  %retval = alloca double, align 8
  %this.addr = alloca ptr, align 8
  %.addr = alloca double, align 8
  %.addr1 = alloca double, align 8
  %dt.addr = alloca double, align 8
  store ptr %this, ptr %this.addr, align 8, !tbaa !3
  store double %0, ptr %.addr, align 8, !tbaa !12
  store double %1, ptr %.addr1, align 8, !tbaa !12
  store double %dt, ptr %dt.addr, align 8, !tbaa !12
  %this2 = load ptr, ptr %this.addr, align 8
  %speed_ = getelementptr inbounds nuw %"class.QuantLib::OrnsteinUhlenbeckProcess", ptr %this2, i32 0, i32 2
  %2 = load double, ptr %speed_, align 8, !tbaa !14
  %3 = call double @llvm.fabs.f64(double %2)
  %call = call noundef double @_ZNSt14numeric_limitsIdE7epsilonEv() #11
  %call3 = call double @sqrt(double noundef %call) #11, !tbaa !41
  %cmp = fcmp olt double %3, %call3
  br i1 %cmp, label %if.then, label %if.else

if.then:                                          ; preds = %entry
  %volatility_ = getelementptr inbounds nuw %"class.QuantLib::OrnsteinUhlenbeckProcess", ptr %this2, i32 0, i32 4
  %4 = load double, ptr %volatility_, align 8, !tbaa !40
  %volatility_4 = getelementptr inbounds nuw %"class.QuantLib::OrnsteinUhlenbeckProcess", ptr %this2, i32 0, i32 4
  %5 = load double, ptr %volatility_4, align 8, !tbaa !40
  %mul = fmul double %4, %5
  %6 = load double, ptr %dt.addr, align 8, !tbaa !12
  %mul5 = fmul double %mul, %6
  store double %mul5, ptr %retval, align 8
  br label %return

if.else:                                          ; preds = %entry
  %volatility_6 = getelementptr inbounds nuw %"class.QuantLib::OrnsteinUhlenbeckProcess", ptr %this2, i32 0, i32 4
  %7 = load double, ptr %volatility_6, align 8, !tbaa !40
  %mul7 = fmul double 5.000000e-01, %7
  %volatility_8 = getelementptr inbounds nuw %"class.QuantLib::OrnsteinUhlenbeckProcess", ptr %this2, i32 0, i32 4
  %8 = load double, ptr %volatility_8, align 8, !tbaa !40
  %mul9 = fmul double %mul7, %8
  %speed_10 = getelementptr inbounds nuw %"class.QuantLib::OrnsteinUhlenbeckProcess", ptr %this2, i32 0, i32 2
  %9 = load double, ptr %speed_10, align 8, !tbaa !14
  %div = fdiv double %mul9, %9
  %speed_11 = getelementptr inbounds nuw %"class.QuantLib::OrnsteinUhlenbeckProcess", ptr %this2, i32 0, i32 2
  %10 = load double, ptr %speed_11, align 8, !tbaa !14
  %mul12 = fmul double -2.000000e+00, %10
  %11 = load double, ptr %dt.addr, align 8, !tbaa !12
  %mul13 = fmul double %mul12, %11
  %call14 = call double @exp(double noundef %mul13) #11, !tbaa !41
  %sub = fsub double 1.000000e+00, %call14
  %mul15 = fmul double %div, %sub
  store double %mul15, ptr %retval, align 8
  br label %return

return:                                           ; preds = %if.else, %if.then
  %12 = load double, ptr %retval, align 8
  ret double %12
}