; Function Attrs: mustprogress nofree nounwind willreturn memory(write, argmem: readwrite) uwtable
define noundef double @_ZNK8QuantLib24OrnsteinUhlenbeckProcess8varianceEddd(ptr nocapture noundef nonnull readonly align 8 dereferenceable(176) %this, double %0, double %1, double noundef %dt) unnamed_addr #10 align 2 {
entry:
  %speed_ = getelementptr inbounds nuw i8, ptr %this, i64 152
  %2 = load double, ptr %speed_, align 8, !tbaa !28
  %3 = tail call double @llvm.fabs.f64(double %2)
  %cmp = fcmp olt double %3, 0x3E50000000000000
  %volatility_ = getelementptr inbounds nuw i8, ptr %this, i64 168
  %4 = load double, ptr %volatility_, align 8, !tbaa !47
  br i1 %cmp, label %if.then, label %if.else

if.then:                                          ; preds = %entry
  %mul = fmul double %4, %4
  %mul5 = fmul double %dt, %mul
  br label %return

if.else:                                          ; preds = %entry
  %mul7 = fmul double %4, 5.000000e-01
  %mul9 = fmul double %4, %mul7
  %div = fdiv double %mul9, %2
  %mul12 = fmul double %2, -2.000000e+00
  %mul13 = fmul double %dt, %mul12
  %call14 = tail call double @exp(double noundef %mul13) #24, !tbaa !56
  %sub = fsub double 1.000000e+00, %call14
  %mul15 = fmul double %sub, %div
  br label %return

return:                                           ; preds = %if.else, %if.then
  %retval.0 = phi double [ %mul5, %if.then ], [ %mul15, %if.else ]
  ret double %retval.0
}